target datalayout = "e-m:e-p270:32:32-p271:32:32-p272:64:64-i64:64-i128:128-f80:128-n8:16:32:64-S128"
target triple = "x86_64-pc-linux-gnu"

%struct.jit_State = type { %struct.GCtrace, ptr, ptr, ptr, ptr, ptr, ptr, i32, i32, i32, i8, i8, %struct.IRType1, i8, %struct.FoldState, ptr, i32, i32, i32, i32, i32, i32, i32, [1 x i32], [5 x %union.TValue], [3 x %union.TValue], ptr, i32, i32, i32, i32, ptr, ptr, i32, i32, i8, ptr, i32, i32, i16, [101 x i16], [258 x i32], [15 x i32], [16 x ptr], [64 x %struct.HotPenalty], i32, [16 x %struct.BPropEntry], i32, %struct.ScEvEntry, ptr, i32, i32, i32, ptr, i32, i32, ptr, ptr, ptr, i64, i64, %union.TValue, ptr, i32, i32 }
%struct.GCtrace = type { %struct.GCRef, i8, i8, i16, i32, i32, %struct.GCRef, ptr, i32, i32, ptr, ptr, %struct.GCRef, %struct.MRef, i32, i32, ptr, i32, i16, i16, i16, i16, i16, i16, i16, i8, i8, i8, i8 }
%struct.GCRef = type { i64 }
%struct.MRef = type { i64 }
%struct.IRType1 = type { i8 }
%struct.FoldState = type { %union.IRIns, [2 x %union.IRIns], [2 x %union.IRIns] }
%union.IRIns = type { %struct.GCRef }
%struct.HotPenalty = type { %struct.MRef, i16, i16 }
%struct.BPropEntry = type { i16, i16, i32 }
%struct.ScEvEntry = type { %struct.MRef, i16, i16, i16, i16, %struct.IRType1, i8 }
%union.TValue = type { i64 }
%struct.GCproto = type { %struct.GCRef, i8, i8, i8, i8, i32, i32, %struct.GCRef, %struct.MRef, %struct.MRef, i32, i32, i32, i8, i8, i16, %struct.GCRef, i32, i32, %struct.MRef, %struct.MRef, %struct.MRef }

@lj_bc_mode = external hidden constant [0 x i16], align 2

; Function Attrs: alwaysinline nounwind uwtable
define internal double @numberVnum(ptr noundef %0) #3 {
  %2 = alloca ptr, align 8
  store ptr %0, ptr %2, align 8, !tbaa !11
  %3 = load ptr, ptr %2, align 8, !tbaa !11
  %4 = load double, ptr %3, align 8, !tbaa !15
  ret double %4
}

; Function Attrs: alwaysinline nounwind uwtable
define internal i32 @numberVint(ptr noundef %0) #3 {
  %2 = alloca ptr, align 8
  store ptr %0, ptr %2, align 8, !tbaa !11
  %3 = load ptr, ptr %2, align 8, !tbaa !11
  %4 = load double, ptr %3, align 8, !tbaa !15
  %5 = fptosi double %4 to i32
  ret i32 %5
}

; Function Attrs: alwaysinline nounwind uwtable
define internal i32 @lj_ir_knum(ptr noundef %0, double noundef %1) #3 {
  %3 = alloca ptr, align 8
  %4 = alloca double, align 8
  %5 = alloca %union.TValue, align 8
  store ptr %0, ptr %3, align 8, !tbaa !4
  store double %1, ptr %4, align 8, !tbaa !221
  call void @llvm.lifetime.start.p0(i64 8, ptr %5) #9
  %6 = load double, ptr %4, align 8, !tbaa !221
  store double %6, ptr %5, align 8, !tbaa !15
  %7 = load ptr, ptr %3, align 8, !tbaa !4
  %8 = load i64, ptr %5, align 8, !tbaa !15
  %9 = call i32 @lj_ir_knum_u64(ptr noundef %7, i64 noundef %8)
  call void @llvm.lifetime.end.p0(i64 8, ptr %5) #9
  ret i32 %9
}

; Function Attrs: nounwind uwtable
define internal i32 @find_kinit(ptr noundef %0, ptr noundef %1, i32 noundef %2, i32 noundef %3) #0 {
  %5 = alloca i32, align 4
  %6 = alloca ptr, align 8
  %7 = alloca ptr, align 8
  %8 = alloca i32, align 4
  %9 = alloca i32, align 4
  %10 = alloca ptr, align 8
  %11 = alloca ptr, align 8
  %12 = alloca i32, align 4
  %13 = alloca i32, align 4
  %14 = alloca i32, align 4
  %15 = alloca ptr, align 8
  %16 = alloca ptr, align 8
  %17 = alloca i32, align 4
  %18 = alloca ptr, align 8
  %19 = alloca i32, align 4
  store ptr %0, ptr %6, align 8, !tbaa !4
  store ptr %1, ptr %7, align 8, !tbaa !54
  store i32 %2, ptr %8, align 4, !tbaa !9
  store i32 %3, ptr %9, align 4, !tbaa !9
  call void @llvm.lifetime.start.p0(i64 8, ptr %10) #9
  call void @llvm.lifetime.start.p0(i64 8, ptr %11) #9
  %20 = load ptr, ptr %6, align 8, !tbaa !4
  %21 = getelementptr inbounds nuw %struct.jit_State, ptr %20, i32 0, i32 5
  %22 = load ptr, ptr %21, align 8, !tbaa !65
  %23 = getelementptr inbounds nuw i8, ptr %22, i64 104
  store ptr %23, ptr %11, align 8, !tbaa !54
  %24 = load ptr, ptr %7, align 8, !tbaa !54
  %25 = getelementptr inbounds i32, ptr %24, i64 -1
  store ptr %25, ptr %10, align 8, !tbaa !54
  br label %26

26:                                               ; preds = %167, %4
  %27 = load ptr, ptr %10, align 8, !tbaa !54
  %28 = load ptr, ptr %11, align 8, !tbaa !54
  %29 = icmp ugt ptr %27, %28
  br i1 %29, label %30, label %170

30:                                               ; preds = %26
  call void @llvm.lifetime.start.p0(i64 4, ptr %12) #9
  %31 = load ptr, ptr %10, align 8, !tbaa !54
  %32 = load i32, ptr %31, align 4, !tbaa !9
  store i32 %32, ptr %12, align 4, !tbaa !9
  call void @llvm.lifetime.start.p0(i64 4, ptr %13) #9
  %33 = load i32, ptr %12, align 4, !tbaa !9
  %34 = and i32 %33, 255
  store i32 %34, ptr %13, align 4, !tbaa !9
  %35 = load i32, ptr %13, align 4, !tbaa !9
  %36 = zext i32 %35 to i64
  %37 = getelementptr inbounds nuw [0 x i16], ptr @lj_bc_mode, i64 0, i64 %36
  %38 = load i16, ptr %37, align 2, !tbaa !13
  %39 = zext i16 %38 to i32
  %40 = and i32 %39, 7
  %41 = icmp eq i32 %40, 2
  br i1 %41, label %42, label %49

42:                                               ; preds = %30
  %43 = load i32, ptr %12, align 4, !tbaa !9
  %44 = lshr i32 %43, 8
  %45 = and i32 %44, 255
  %46 = load i32, ptr %8, align 4, !tbaa !9
  %47 = icmp ule i32 %45, %46
  br i1 %47, label %48, label %49

48:                                               ; preds = %42
  store i32 0, ptr %5, align 4
  store i32 1, ptr %14, align 4
  br label %164

49:                                               ; preds = %42, %30
  %50 = load i32, ptr %13, align 4, !tbaa !9
  %51 = zext i32 %50 to i64
  %52 = getelementptr inbounds nuw [0 x i16], ptr @lj_bc_mode, i64 0, i64 %51
  %53 = load i16, ptr %52, align 2, !tbaa !13
  %54 = zext i16 %53 to i32
  %55 = and i32 %54, 7
  %56 = icmp eq i32 %55, 1
  br i1 %56, label %57, label %162

57:                                               ; preds = %49
  %58 = load i32, ptr %12, align 4, !tbaa !9
  %59 = lshr i32 %58, 8
  %60 = and i32 %59, 255
  %61 = load i32, ptr %8, align 4, !tbaa !9
  %62 = icmp eq i32 %60, %61
  br i1 %62, label %63, label %162

63:                                               ; preds = %57
  %64 = load i32, ptr %13, align 4, !tbaa !9
  %65 = icmp eq i32 %64, 41
  br i1 %65, label %69, label %66

66:                                               ; preds = %63
  %67 = load i32, ptr %13, align 4, !tbaa !9
  %68 = icmp eq i32 %67, 42
  br i1 %68, label %69, label %161

69:                                               ; preds = %66, %63
  call void @llvm.lifetime.start.p0(i64 8, ptr %15) #9
  %70 = load ptr, ptr %10, align 8, !tbaa !54
  store ptr %70, ptr %15, align 8, !tbaa !54
  br label %71

71:                                               ; preds = %102, %69
  %72 = load ptr, ptr %10, align 8, !tbaa !54
  %73 = load ptr, ptr %11, align 8, !tbaa !54
  %74 = icmp ugt ptr %72, %73
  br i1 %74, label %75, label %105

75:                                               ; preds = %71
  %76 = load ptr, ptr %10, align 8, !tbaa !54
  %77 = load i32, ptr %76, align 4, !tbaa !9
  %78 = and i32 %77, 255
  %79 = icmp eq i32 %78, 88
  br i1 %79, label %80, label %101

80:                                               ; preds = %75
  call void @llvm.lifetime.start.p0(i64 8, ptr %16) #9
  %81 = load ptr, ptr %10, align 8, !tbaa !54
  %82 = load ptr, ptr %10, align 8, !tbaa !54
  %83 = load i32, ptr %82, align 4, !tbaa !9
  %84 = lshr i32 %83, 16
  %85 = zext i32 %84 to i64
  %86 = sub nsw i64 %85, 32768
  %87 = getelementptr inbounds i32, ptr %81, i64 %86
  %88 = getelementptr inbounds i32, ptr %87, i64 1
  store ptr %88, ptr %16, align 8, !tbaa !54
  %89 = load ptr, ptr %16, align 8, !tbaa !54
  %90 = load ptr, ptr %15, align 8, !tbaa !54
  %91 = icmp ugt ptr %89, %90
  br i1 %91, label %92, label %97

92:                                               ; preds = %80
  %93 = load ptr, ptr %16, align 8, !tbaa !54
  %94 = load ptr, ptr %7, align 8, !tbaa !54
  %95 = icmp ule ptr %93, %94
  br i1 %95, label %96, label %97

96:                                               ; preds = %92
  store i32 0, ptr %5, align 4
  store i32 1, ptr %14, align 4
  br label %98

97:                                               ; preds = %92, %80
  store i32 0, ptr %14, align 4
  br label %98

98:                                               ; preds = %97, %96
  call void @llvm.lifetime.end.p0(i64 8, ptr %16) #9
  %99 = load i32, ptr %14, align 4
  switch i32 %99, label %160 [
    i32 0, label %100
  ]

100:                                              ; preds = %98
  br label %101

101:                                              ; preds = %100, %75
  br label %102

102:                                              ; preds = %101
  %103 = load ptr, ptr %10, align 8, !tbaa !54
  %104 = getelementptr inbounds i32, ptr %103, i32 -1
  store ptr %104, ptr %10, align 8, !tbaa !54
  br label %71, !llvm.loop !230

105:                                              ; preds = %71
  %106 = load i32, ptr %13, align 4, !tbaa !9
  %107 = icmp eq i32 %106, 41
  br i1 %107, label %108, label %126

108:                                              ; preds = %105
  call void @llvm.lifetime.start.p0(i64 4, ptr %17) #9
  %109 = load i32, ptr %12, align 4, !tbaa !9
  %110 = lshr i32 %109, 16
  %111 = trunc i32 %110 to i16
  %112 = sext i16 %111 to i32
  store i32 %112, ptr %17, align 4, !tbaa !9
  %113 = load i32, ptr %9, align 4, !tbaa !9
  %114 = icmp eq i32 %113, 19
  br i1 %114, label %115, label %119

115:                                              ; preds = %108
  %116 = load ptr, ptr %6, align 8, !tbaa !4
  %117 = load i32, ptr %17, align 4, !tbaa !9
  %118 = call i32 @lj_ir_kint(ptr noundef %116, i32 noundef %117)
  br label %124

119:                                              ; preds = %108
  %120 = load ptr, ptr %6, align 8, !tbaa !4
  %121 = load i32, ptr %17, align 4, !tbaa !9
  %122 = sitofp i32 %121 to double
  %123 = call i32 @lj_ir_knum(ptr noundef %120, double noundef %122)
  br label %124

124:                                              ; preds = %119, %115
  %125 = phi i32 [ %118, %115 ], [ %123, %119 ]
  store i32 %125, ptr %5, align 4
  store i32 1, ptr %14, align 4
  call void @llvm.lifetime.end.p0(i64 4, ptr %17) #9
  br label %160

126:                                              ; preds = %105
  call void @llvm.lifetime.start.p0(i64 8, ptr %18) #9
  %127 = load ptr, ptr %6, align 8, !tbaa !4
  %128 = getelementptr inbounds nuw %struct.jit_State, ptr %127, i32 0, i32 5
  %129 = load ptr, ptr %128, align 8, !tbaa !65
  %130 = getelementptr inbounds nuw %struct.GCproto, ptr %129, i32 0, i32 8
  %131 = getelementptr inbounds nuw %struct.MRef, ptr %130, i32 0, i32 0
  %132 = load i64, ptr %131, align 8, !tbaa !132
  %133 = inttoptr i64 %132 to ptr
  %134 = load i32, ptr %12, align 4, !tbaa !9
  %135 = lshr i32 %134, 16
  %136 = zext i32 %135 to i64
  %137 = getelementptr inbounds nuw %union.TValue, ptr %133, i64 %136
  store ptr %137, ptr %18, align 8, !tbaa !11
  %138 = load i32, ptr %9, align 4, !tbaa !9
  %139 = icmp eq i32 %138, 19
  br i1 %139, label %140, label %154

140:                                              ; preds = %126
  call void @llvm.lifetime.start.p0(i64 4, ptr %19) #9
  %141 = load ptr, ptr %18, align 8, !tbaa !11
  %142 = call i32 @numberVint(ptr noundef %141)
  store i32 %142, ptr %19, align 4, !tbaa !9
  %143 = load ptr, ptr %18, align 8, !tbaa !11
  %144 = load double, ptr %143, align 8, !tbaa !15
  %145 = load i32, ptr %19, align 4, !tbaa !9
  %146 = sitofp i32 %145 to double
  %147 = fcmp oeq double %144, %146
  br i1 %147, label %148, label %152

148:                                              ; preds = %140
  %149 = load ptr, ptr %6, align 8, !tbaa !4
  %150 = load i32, ptr %19, align 4, !tbaa !9
  %151 = call i32 @lj_ir_kint(ptr noundef %149, i32 noundef %150)
  store i32 %151, ptr %5, align 4
  store i32 1, ptr %14, align 4
  br label %153

152:                                              ; preds = %140
  store i32 0, ptr %5, align 4
  store i32 1, ptr %14, align 4
  br label %153

153:                                              ; preds = %152, %148
  call void @llvm.lifetime.end.p0(i64 4, ptr %19) #9
  br label %159

154:                                              ; preds = %126
  %155 = load ptr, ptr %6, align 8, !tbaa !4
  %156 = load ptr, ptr %18, align 8, !tbaa !11
  %157 = call double @numberVnum(ptr noundef %156)
  %158 = call i32 @lj_ir_knum(ptr noundef %155, double noundef %157)
  store i32 %158, ptr %5, align 4
  store i32 1, ptr %14, align 4
  br label %159

159:                                              ; preds = %154, %153
  call void @llvm.lifetime.end.p0(i64 8, ptr %18) #9
  br label %160

160:                                              ; preds = %159, %124, %98
  call void @llvm.lifetime.end.p0(i64 8, ptr %15) #9
  br label %164

161:                                              ; preds = %66
  store i32 0, ptr %5, align 4
  store i32 1, ptr %14, align 4
  br label %164

162:                                              ; preds = %57, %49
  br label %163

163:                                              ; preds = %162
  store i32 0, ptr %14, align 4
  br label %164

164:                                              ; preds = %163, %161, %160, %48
  call void @llvm.lifetime.end.p0(i64 4, ptr %13) #9
  call void @llvm.lifetime.end.p0(i64 4, ptr %12) #9
  %165 = load i32, ptr %14, align 4
  switch i32 %165, label %171 [
    i32 0, label %166
  ]

166:                                              ; preds = %164
  br label %167

167:                                              ; preds = %166
  %168 = load ptr, ptr %10, align 8, !tbaa !54
  %169 = getelementptr inbounds i32, ptr %168, i32 -1
  store ptr %169, ptr %10, align 8, !tbaa !54
  br label %26, !llvm.loop !231

170:                                              ; preds = %26
  store i32 0, ptr %5, align 4
  store i32 1, ptr %14, align 4
  br label %171

171:                                              ; preds = %170, %164
  call void @llvm.lifetime.end.p0(i64 8, ptr %11) #9
  call void @llvm.lifetime.end.p0(i64 8, ptr %10) #9
  %172 = load i32, ptr %5, align 4
  ret i32 %172
}