; Function Attrs: nounwind uwtable
define internal fastcc i32 @find_kinit(ptr noundef %0, ptr noundef readonly captures(address) %1, i32 noundef range(i32 0, 258) %2, i32 noundef %3) unnamed_addr #0 {
  %5 = getelementptr inbounds nuw i8, ptr %0, i64 152
  %6 = load ptr, ptr %5, align 8, !tbaa !60
  %7 = getelementptr inbounds nuw i8, ptr %6, i64 104
  %.04767 = getelementptr inbounds i8, ptr %1, i64 -4
  %8 = icmp ugt ptr %.04767, %7
  br i1 %8, label %.lr.ph, label %.thread60

.lr.ph:                                           ; preds = %4, %.lr.ph.backedge
  %.04768 = phi ptr [ %.04768.be, %.lr.ph.backedge ], [ %.04767, %4 ]
  %9 = load i32, ptr %.04768, align 4, !tbaa !37
  %10 = and i32 %9, 255
  %11 = zext nneg i32 %10 to i64
  %12 = getelementptr inbounds nuw [0 x i16], ptr @lj_bc_mode, i64 0, i64 %11
  %13 = load i16, ptr %12, align 2, !tbaa !113
  %14 = and i16 %13, 7
  switch i16 %14, label %.thread [
    i16 2, label %15
    i16 1, label %19
  ]

15:                                               ; preds = %.lr.ph
  %16 = lshr i32 %9, 8
  %17 = and i32 %16, 255
  %.not = icmp samesign ugt i32 %17, %2
  %.047 = getelementptr inbounds i8, ptr %.04768, i64 -4
  %18 = icmp ugt ptr %.047, %7
  %or.cond72 = select i1 %.not, i1 %18, i1 false
  br i1 %or.cond72, label %.lr.ph.backedge, label %.thread60

19:                                               ; preds = %.lr.ph
  %20 = lshr i32 %9, 8
  %21 = and i32 %20, 255
  %22 = icmp eq i32 %21, %2
  br i1 %22, label %23, label %.thread

23:                                               ; preds = %19
  %24 = icmp eq i32 %10, 41
  %25 = add nsw i32 %10, -41
  %or.cond = icmp ult i32 %25, 2
  br i1 %or.cond, label %.preheader, label %.thread60

.preheader:                                       ; preds = %23
  %26 = icmp ugt ptr %.04768, %7
  br i1 %26, label %.lr.ph71, label %._crit_edge

.lr.ph71:                                         ; preds = %.preheader, %36
  %.24970 = phi ptr [ %37, %36 ], [ %.04768, %.preheader ]
  %27 = load i32, ptr %.24970, align 4, !tbaa !37
  %28 = and i32 %27, 255
  %29 = icmp eq i32 %28, 88
  br i1 %29, label %30, label %36

30:                                               ; preds = %.lr.ph71
  %31 = lshr i32 %27, 16
  %32 = zext nneg i32 %31 to i64
  %33 = getelementptr i32, ptr %.24970, i64 %32
  %34 = getelementptr i8, ptr %33, i64 -131068
  %35 = icmp ule ptr %34, %.04768
  %.not57 = icmp ugt ptr %34, %1
  %or.cond58 = or i1 %35, %.not57
  br i1 %or.cond58, label %36, label %.thread60

36:                                               ; preds = %.lr.ph71, %30
  %37 = getelementptr inbounds i8, ptr %.24970, i64 -4
  %38 = icmp ugt ptr %37, %7
  br i1 %38, label %.lr.ph71, label %._crit_edge, !llvm.loop !192

._crit_edge:                                      ; preds = %36, %.preheader
  br i1 %24, label %39, label %48

39:                                               ; preds = %._crit_edge
  %40 = ashr i32 %9, 16
  %41 = icmp eq i32 %3, 19
  br i1 %41, label %42, label %44

42:                                               ; preds = %39
  %43 = tail call i32 @lj_ir_kint(ptr noundef %0, i32 noundef %40) #8
  br label %.thread60

44:                                               ; preds = %39
  %45 = sitofp i32 %40 to double
  %46 = bitcast double %45 to i64
  %47 = tail call i32 @lj_ir_knum_u64(ptr noundef %0, i64 noundef %46) #8
  br label %.thread60

48:                                               ; preds = %._crit_edge
  %49 = getelementptr inbounds nuw i8, ptr %6, i64 32
  %50 = load i64, ptr %49, align 8, !tbaa !114
  %51 = inttoptr i64 %50 to ptr
  %52 = lshr i32 %9, 16
  %53 = zext nneg i32 %52 to i64
  %54 = getelementptr inbounds nuw %union.TValue, ptr %51, i64 %53
  %55 = icmp eq i32 %3, 19
  br i1 %55, label %56, label %63

56:                                               ; preds = %48
  %57 = load double, ptr %54, align 8, !tbaa !4
  %58 = fptosi double %57 to i32
  %59 = sitofp i32 %58 to double
  %60 = fcmp oeq double %57, %59
  br i1 %60, label %61, label %.thread60

61:                                               ; preds = %56
  %62 = tail call i32 @lj_ir_kint(ptr noundef nonnull %0, i32 noundef %58) #8
  br label %.thread60

63:                                               ; preds = %48
  %64 = load i64, ptr %54, align 8, !tbaa !4
  %65 = tail call i32 @lj_ir_knum_u64(ptr noundef nonnull %0, i64 noundef %64) #8
  br label %.thread60

.thread:                                          ; preds = %.lr.ph, %19
  %.047.old = getelementptr inbounds i8, ptr %.04768, i64 -4
  %.old = icmp ugt ptr %.047.old, %7
  br i1 %.old, label %.lr.ph.backedge, label %.thread60

.lr.ph.backedge:                                  ; preds = %.thread, %15
  %.04768.be = phi ptr [ %.047.old, %.thread ], [ %.047, %15 ]
  br label %.lr.ph, !llvm.loop !193

.thread60:                                        ; preds = %.thread, %15, %30, %4, %23, %44, %42, %61, %56, %63
  %.8 = phi i32 [ 0, %23 ], [ 0, %56 ], [ %62, %61 ], [ %65, %63 ], [ %47, %44 ], [ %43, %42 ], [ 0, %4 ], [ 0, %30 ], [ 0, %15 ], [ 0, %.thread ]
  ret i32 %.8
}